libsimdjson.so.0 libsimdjson0 #MINVER#
 _ZN8simdjson10ParsedJson10deallocateEv@Base 0.2.0
 _ZN8simdjson10ParsedJson10print_jsonERSo@Base 0.2.0
 _ZN8simdjson10ParsedJson11InvalidJSOND0Ev@Base 0.2.0
 _ZN8simdjson10ParsedJson11InvalidJSOND1Ev@Base 0.2.0
 _ZN8simdjson10ParsedJson11InvalidJSOND2Ev@Base 0.2.0
 _ZN8simdjson10ParsedJson13dump_raw_tapeERSo@Base 0.2.0
 _ZN8simdjson10ParsedJson17allocate_capacityEmm@Base 0.2.0
 _ZN8simdjson10ParsedJson4initEv@Base 0.2.0
 _ZN8simdjson10ParsedJson8Iterator16relative_move_toEPKcj@Base 0.2.0
 _ZN8simdjson10ParsedJson8Iterator7move_toEPKcj@Base 0.2.0
 _ZN8simdjson10ParsedJson8IteratorC1EOS1_@Base 0.2.0
 _ZN8simdjson10ParsedJson8IteratorC1ERKS1_@Base 0.2.0
 _ZN8simdjson10ParsedJson8IteratorC1ERS0_@Base 0.2.0
 _ZN8simdjson10ParsedJson8IteratorC2EOS1_@Base 0.2.0
 _ZN8simdjson10ParsedJson8IteratorC2ERKS1_@Base 0.2.0
 _ZN8simdjson10ParsedJson8IteratorC2ERS0_@Base 0.2.0
 _ZN8simdjson10ParsedJson8IteratorD1Ev@Base 0.2.0
 _ZN8simdjson10ParsedJson8IteratorD2Ev@Base 0.2.0
 _ZN8simdjson10ParsedJsonC1EOS0_@Base 0.2.0
 _ZN8simdjson10ParsedJsonC1Ev@Base 0.2.0
 _ZN8simdjson10ParsedJsonC2EOS0_@Base 0.2.0
 _ZN8simdjson10ParsedJsonC2Ev@Base 0.2.0
 _ZN8simdjson10ParsedJsonD1Ev@Base 0.2.0
 _ZN8simdjson10ParsedJsonD2Ev@Base 0.2.0
 _ZN8simdjson10get_corpusERKNSt7__cxx1112basic_stringIcSt11char_traitsIcESaIcEEE@Base 0.2.0
 _ZN8simdjson10json_parseEPKcmRNS_10ParsedJsonEb@Base 0.2.1
 _ZN8simdjson10json_parseEPKhmRNS_10ParsedJsonEb@Base 0.2.1
 _ZN8simdjson11json_minifyEPKhmPh@Base 0.2.0
 _ZN8simdjson13error_messageB5cxx11Ei@Base 0.2.0
 _ZN8simdjson14json_parse_ptrE@Base 0.2.0
 _ZN8simdjson15unified_machineILNS_12ArchitectureE0EEEiPKhmRNS_10ParsedJsonE@Base 0.2.0
 _ZN8simdjson15unified_machineILNS_12ArchitectureE1EEEiPKhmRNS_10ParsedJsonE@Base 0.2.0
 _ZN8simdjson17build_parsed_jsonEPKhmb@Base 0.2.0
 _ZN8simdjson17codepoint_to_utf8EjPh@Base 0.2.0
 _ZN8simdjson19json_parse_dispatchEPKhmRNS_10ParsedJsonEb@Base 0.2.0
 _ZN8simdjson20find_structural_bitsILNS_12ArchitectureE0EEEiPKhmRNS_10ParsedJsonE@Base 0.2.0
 _ZN8simdjson20find_structural_bitsILNS_12ArchitectureE1EEEiPKhmRNS_10ParsedJsonE@Base 0.2.0
 _ZN8simdjson22allocate_padded_bufferEm@Base 0.2.0
 _ZN8simdjson25json_parse_implementationILNS_12ArchitectureE0EEEiPKhmRNS_10ParsedJsonEb@Base 0.2.0
 _ZN8simdjson25json_parse_implementationILNS_12ArchitectureE1EEEiPKhmRNS_10ParsedJsonEb@Base 0.2.0
 _ZN8simdjson34find_best_supported_implementationEv@Base 0.2.0
 _ZN9__gnu_cxx6__stoaIlicJiEEET0_PFT_PKT1_PPS3_DpT2_EPKcS5_PmS9_@Base 0.2.0
 _ZNK8simdjson10ParsedJson11InvalidJSON4whatEv@Base 0.2.0
 _ZNK8simdjson10ParsedJson14get_error_codeEv@Base 0.2.0
 _ZNK8simdjson10ParsedJson17get_error_messageB5cxx11Ev@Base 0.2.0
 _ZNK8simdjson10ParsedJson8Iterator5printERSob@Base 0.2.0
 _ZNK8simdjson10ParsedJson8is_validEv@Base 0.2.0
 _ZNKSt5ctypeIcE8do_widenEc@Base 0.1.2
 (optional)_ZNKSt7__cxx1112basic_stringIcSt11char_traitsIcESaIcEE7compareEPKc@Base 0.2.0
 _ZNSt3mapIiKNSt7__cxx1112basic_stringIcSt11char_traitsIcESaIcEEESt4lessIiESaISt4pairIKiS6_EEEC1ESt16initializer_listISB_ERKS8_RKSC_@Base 0.1.2
 _ZNSt3mapIiKNSt7__cxx1112basic_stringIcSt11char_traitsIcESaIcEEESt4lessIiESaISt4pairIKiS6_EEEC2ESt16initializer_listISB_ERKS8_RKSC_@Base 0.1.2
 _ZNSt3mapIiKNSt7__cxx1112basic_stringIcSt11char_traitsIcESaIcEEESt4lessIiESaISt4pairIKiS6_EEED1Ev@Base 0.1.2
 _ZNSt3mapIiKNSt7__cxx1112basic_stringIcSt11char_traitsIcESaIcEEESt4lessIiESaISt4pairIKiS6_EEED2Ev@Base 0.1.2
 (optional)_ZNSt7__cxx1112basic_stringIcSt11char_traitsIcESaIcEE9_M_mutateEmmPKcm@Base 0.2.0
 _ZNSt7__cxx1112basic_stringIcSt11char_traitsIcESaIcEEC1IS3_EEPKcRKS3_@Base 0.1.2
 _ZNSt7__cxx1112basic_stringIcSt11char_traitsIcESaIcEEC2IS3_EEPKcRKS3_@Base 0.1.2
 _ZNSt8_Rb_treeIiSt4pairIKiKNSt7__cxx1112basic_stringIcSt11char_traitsIcESaIcEEEESt10_Select1stIS9_ESt4lessIiESaIS9_EE24_M_get_insert_unique_posERS1_@Base 0.1.2
 _ZNSt8_Rb_treeIiSt4pairIKiKNSt7__cxx1112basic_stringIcSt11char_traitsIcESaIcEEEESt10_Select1stIS9_ESt4lessIiESaIS9_EE29_M_get_insert_hint_unique_posESt23_Rb_tree_const_iteratorIS9_ERS1_@Base 0.1.2
 _ZNSt8_Rb_treeIiSt4pairIKiKNSt7__cxx1112basic_stringIcSt11char_traitsIcESaIcEEEESt10_Select1stIS9_ESt4lessIiESaIS9_EE8_M_eraseEPSt13_Rb_tree_nodeIS9_E@Base 0.1.2
 _ZTIN8simdjson10ParsedJson11InvalidJSONE@Base 0.2.0
 _ZTSN8simdjson10ParsedJson11InvalidJSONE@Base 0.2.0
 _ZTVN8simdjson10ParsedJson11InvalidJSONE@Base 0.2.0
