libsimdjson.so.1 libsimdjson1 #MINVER#
 _ZGVN8simdjson21active_implementationE@Base 0.3.0
 _ZGVN8simdjson25available_implementationsE@Base 0.3.0
 _ZGVN8simdjson8internal11error_codesE@Base 0.3.0
 _ZGVN8simdjson8internal59detect_best_supported_implementation_on_first_use_singletonE@Base 0.3.0
 _ZN8simdjson17codepoint_to_utf8EjPh@Base 0.2.0
 _ZN8simdjson21active_implementationE@Base 0.3.0
 _ZN8simdjson25available_implementationsE@Base 0.3.0
 _ZN8simdjson7haswell13numberparsing18slow_float_parsingEPKcRNS_3dom6parserE@Base 0.3.0
 _ZN8simdjson7haswell13numberparsing19parse_large_integerEPKhRNS_3dom6parserEb@Base 0.3.0
 _ZN8simdjson7haswell14implementationD1Ev@Base 0.3.0
 _ZN8simdjson7haswell14implementationD2Ev@Base 0.3.0
 _ZN8simdjson7haswell6stage113json_minifier6minifyILm128EEENS_10error_codeEPKhmPhRm@Base 0.3.0
 _ZN8simdjson7haswell6stage123json_structural_indexer5indexILm128EEENS_10error_codeEPKhmRNS_3dom6parserEb@Base 0.3.0
 _ZN8simdjson8fallback13numberparsing18slow_float_parsingEPKcRNS_3dom6parserE@Base 0.3.0
 _ZN8simdjson8fallback13numberparsing19parse_large_integerEPKhRNS_3dom6parserEb@Base 0.3.0
 _ZN8simdjson8fallback14implementationD1Ev@Base 0.3.0
 _ZN8simdjson8fallback14implementationD2Ev@Base 0.3.0
 _ZN8simdjson8internal11error_codesE@Base 0.3.0
 _ZN8simdjson8internal26unsupported_implementationC1Ev@Base 0.3.0
 _ZN8simdjson8internal26unsupported_implementationC2Ev@Base 0.3.0
 _ZN8simdjson8internal26unsupported_implementationD1Ev@Base 0.3.0
 _ZN8simdjson8internal26unsupported_implementationD2Ev@Base 0.3.0
 _ZN8simdjson8internal49detect_best_supported_implementation_on_first_useD1Ev@Base 0.3.0
 _ZN8simdjson8internal49detect_best_supported_implementation_on_first_useD2Ev@Base 0.3.0
 _ZN8simdjson8internal59detect_best_supported_implementation_on_first_use_singletonE@Base 0.3.0
 _ZN8simdjson8westmere13numberparsing18slow_float_parsingEPKcRNS_3dom6parserE@Base 0.3.0
 _ZN8simdjson8westmere13numberparsing19parse_large_integerEPKhRNS_3dom6parserEb@Base 0.3.0
 _ZN8simdjson8westmere14implementationD1Ev@Base 0.3.0
 _ZN8simdjson8westmere14implementationD2Ev@Base 0.3.0
 _ZN8simdjson8westmere6stage113json_minifier6minifyILm64EEENS_10error_codeEPKhmPhRm@Base 0.3.0
 _ZN8simdjson8westmere6stage123json_structural_indexer5indexILm64EEENS_10error_codeEPKhmRNS_3dom6parserEb@Base 0.3.0
 _ZNK8simdjson14implementation11descriptionB5cxx11Ev@Base 0.3.0
 _ZNK8simdjson14implementation25required_instruction_setsEv@Base 0.3.0
 _ZNK8simdjson14implementation4nameB5cxx11Ev@Base 0.3.0
 _ZNK8simdjson7haswell14implementation5parseEPKhmRNS_3dom6parserE@Base 0.3.0
 _ZNK8simdjson7haswell14implementation6minifyEPKhmPhRm@Base 0.3.0
 _ZNK8simdjson7haswell14implementation6stage1EPKhmRNS_3dom6parserEb@Base 0.3.0
 _ZNK8simdjson7haswell14implementation6stage2EPKhmRNS_3dom6parserE@Base 0.3.0
 _ZNK8simdjson7haswell14implementation6stage2EPKhmRNS_3dom6parserERm@Base 0.3.0
 _ZNK8simdjson8fallback14implementation5parseEPKhmRNS_3dom6parserE@Base 0.3.0
 _ZNK8simdjson8fallback14implementation6minifyEPKhmPhRm@Base 0.3.0
 _ZNK8simdjson8fallback14implementation6stage1EPKhmRNS_3dom6parserEb@Base 0.3.0
 _ZNK8simdjson8fallback14implementation6stage2EPKhmRNS_3dom6parserE@Base 0.3.0
 _ZNK8simdjson8fallback14implementation6stage2EPKhmRNS_3dom6parserERm@Base 0.3.0
 _ZNK8simdjson8internal26unsupported_implementation5parseEPKhmRNS_3dom6parserE@Base 0.3.0
 _ZNK8simdjson8internal26unsupported_implementation6minifyEPKhmPhRm@Base 0.3.0
 _ZNK8simdjson8internal26unsupported_implementation6stage1EPKhmRNS_3dom6parserEb@Base 0.3.0
 _ZNK8simdjson8internal26unsupported_implementation6stage2EPKhmRNS_3dom6parserE@Base 0.3.0
 _ZNK8simdjson8internal26unsupported_implementation6stage2EPKhmRNS_3dom6parserERm@Base 0.3.0
 _ZNK8simdjson8internal29available_implementation_list21detect_best_supportedEv@Base 0.3.0
 _ZNK8simdjson8internal29available_implementation_list3endEv@Base 0.3.0
 _ZNK8simdjson8internal29available_implementation_list4sizeEv@Base 0.3.0
 _ZNK8simdjson8internal29available_implementation_list5beginEv@Base 0.3.0
 _ZNK8simdjson8internal49detect_best_supported_implementation_on_first_use11descriptionB5cxx11Ev@Base 0.3.0
 _ZNK8simdjson8internal49detect_best_supported_implementation_on_first_use25required_instruction_setsEv@Base 0.3.0
 _ZNK8simdjson8internal49detect_best_supported_implementation_on_first_use4nameB5cxx11Ev@Base 0.3.0
 _ZNK8simdjson8internal49detect_best_supported_implementation_on_first_use5parseEPKhmRNS_3dom6parserE@Base 0.3.0
 _ZNK8simdjson8internal49detect_best_supported_implementation_on_first_use6minifyEPKhmPhRm@Base 0.3.0
 _ZNK8simdjson8internal49detect_best_supported_implementation_on_first_use6stage1EPKhmRNS_3dom6parserEb@Base 0.3.0
 _ZNK8simdjson8internal49detect_best_supported_implementation_on_first_use6stage2EPKhmRNS_3dom6parserE@Base 0.3.0
 _ZNK8simdjson8internal49detect_best_supported_implementation_on_first_use6stage2EPKhmRNS_3dom6parserERm@Base 0.3.0
 _ZNK8simdjson8internal49detect_best_supported_implementation_on_first_use8set_bestEv@Base 0.3.0
 _ZNK8simdjson8westmere14implementation5parseEPKhmRNS_3dom6parserE@Base 0.3.0
 _ZNK8simdjson8westmere14implementation6minifyEPKhmPhRm@Base 0.3.0
 _ZNK8simdjson8westmere14implementation6stage1EPKhmRNS_3dom6parserEb@Base 0.3.0
 _ZNK8simdjson8westmere14implementation6stage2EPKhmRNS_3dom6parserE@Base 0.3.0
 _ZNK8simdjson8westmere14implementation6stage2EPKhmRNS_3dom6parserERm@Base 0.3.0
 _ZNSt7__cxx1112basic_stringIcSt11char_traitsIcESaIcEE12_M_constructIPKcEEvT_S8_St20forward_iterator_tag@Base 0.3.0
 _ZTIN8simdjson14implementationE@Base 0.3.0
 _ZTIN8simdjson7haswell14implementationE@Base 0.3.0
 _ZTIN8simdjson8fallback14implementationE@Base 0.3.0
 _ZTIN8simdjson8internal26unsupported_implementationE@Base 0.3.0
 _ZTIN8simdjson8internal49detect_best_supported_implementation_on_first_useE@Base 0.3.0
 _ZTIN8simdjson8westmere14implementationE@Base 0.3.0
 _ZTSN8simdjson14implementationE@Base 0.3.0
 _ZTSN8simdjson7haswell14implementationE@Base 0.3.0
 _ZTSN8simdjson8fallback14implementationE@Base 0.3.0
 _ZTSN8simdjson8internal26unsupported_implementationE@Base 0.3.0
 _ZTSN8simdjson8internal49detect_best_supported_implementation_on_first_useE@Base 0.3.0
 _ZTSN8simdjson8westmere14implementationE@Base 0.3.0
 _ZTVN8simdjson14implementationE@Base 0.3.0
 _ZTVN8simdjson7haswell14implementationE@Base 0.3.0
 _ZTVN8simdjson8fallback14implementationE@Base 0.3.0
 _ZTVN8simdjson8internal26unsupported_implementationE@Base 0.3.0
 _ZTVN8simdjson8internal49detect_best_supported_implementation_on_first_useE@Base 0.3.0
 _ZTVN8simdjson8westmere14implementationE@Base 0.3.0
